(dp0
S'links'
p1
(lp2
S'https://leetcode.com/problems/best-time-to-buy-and-sell-stock-ii'
p3
aS'https://leetcode.com/problems/rotate-array'
p4
aS'https://leetcode.com/problems/contains-duplicate'
p5
aS'https://leetcode.com/problems/single-number'
p6
aS'https://leetcode.com/problems/intersection-of-two-arrays-ii'
p7
aS'https://leetcode.com/problems/plus-one'
p8
aS'https://leetcode.com/problems/move-zeroes'
p9
aS'https://leetcode.com/problems/two-sum'
p10
aS'https://leetcode.com/problems/valid-sudoku'
p11
aS'https://leetcode.com/problems/rotate-image'
p12
aS'https://leetcode.com/problems/reverse-string'
p13
aS'https://leetcode.com/problems/reverse-integer'
p14
aS'https://leetcode.com/problems/first-unique-character-in-a-string'
p15
aS'https://leetcode.com/problems/valid-anagram'
p16
aS'https://leetcode.com/problems/valid-palindrome'
p17
aS'https://leetcode.com/problems/string-to-integer-atoi'
p18
aS'https://leetcode.com/problems/implement-strstr'
p19
aS'https://leetcode.com/problems/count-and-say'
p20
aS'https://leetcode.com/problems/longest-common-prefix'
p21
aS'https://leetcode.com/problems/delete-node-in-a-linked-list'
p22
aS'https://leetcode.com/problems/remove-nth-node-from-end-of-list'
p23
aS'https://leetcode.com/problems/reverse-linked-list'
p24
aS'https://leetcode.com/problems/merge-two-sorted-lists'
p25
aS'https://leetcode.com/problems/palindrome-linked-list'
p26
aS'https://leetcode.com/problems/linked-list-cycle'
p27
aS'https://leetcode.com/problems/maximum-depth-of-binary-tree'
p28
aS'https://leetcode.com/problems/validate-binary-search-tree'
p29
aS'https://leetcode.com/problems/symmetric-tree'
p30
aS'https://leetcode.com/problems/binary-tree-level-order-traversal'
p31
aS'https://leetcode.com/problems/convert-sorted-array-to-binary-search-tree'
p32
aS'https://leetcode.com/problems/merge-sorted-array'
p33
aS'https://leetcode.com/problems/first-bad-version'
p34
aS'https://leetcode.com/problems/climbing-stairs'
p35
aS'https://leetcode.com/problems/best-time-to-buy-and-sell-stock'
p36
aS'https://leetcode.com/problems/maximum-subarray'
p37
aS'https://leetcode.com/problems/house-robber'
p38
aS'https://leetcode.com/problems/shuffle-an-array'
p39
aS'https://leetcode.com/problems/min-stack'
p40
aS'https://leetcode.com/problems/fizz-buzz'
p41
aS'https://leetcode.com/problems/count-primes'
p42
aS'https://leetcode.com/problems/power-of-three'
p43
aS'https://leetcode.com/problems/roman-to-integer'
p44
aS'https://leetcode.com/problems/number-of-1-bits'
p45
aS'https://leetcode.com/problems/hamming-distance'
p46
aS'https://leetcode.com/problems/reverse-bits'
p47
aS'https://leetcode.com/problems/pascals-triangle'
p48
aS'https://leetcode.com/problems/valid-parentheses'
p49
aS'https://leetcode.com/problems/missing-number'
p50
aS'https://leetcode.com/problems/'
p51
ag51
ag51
ag51
ag51
ag51
as.